; Function Attrs: mustprogress uwtable
define hidden void @_ZN4cvc58internal6theory11quantifiers11TermDbSygus9mkGenericERKNS0_5DTypeEib(ptr noalias sret(%"class.cvc5::internal::NodeTemplate") align 8 %agg.result, ptr noundef nonnull align 8 dereferenceable(1040) %this, ptr noundef nonnull align 8 dereferenceable(448) %dt, i32 noundef %c, i1 noundef zeroext %doBetaRed) local_unnamed_addr #3 align 2 personality ptr @__gxx_personality_v0 {
entry:
  %var_count.i = alloca %"class.std::map.468", align 8
  %pre = alloca %"class.std::map.566", align 8
  %0 = getelementptr inbounds i8, ptr %pre, i64 8
  store i32 0, ptr %0, align 8
  %_M_parent.i.i.i.i.i = getelementptr inbounds i8, ptr %pre, i64 16
  store ptr null, ptr %_M_parent.i.i.i.i.i, align 8
  %_M_left.i.i.i.i.i = getelementptr inbounds i8, ptr %pre, i64 24
  store ptr %0, ptr %_M_left.i.i.i.i.i, align 8
  %_M_right.i.i.i.i.i = getelementptr inbounds i8, ptr %pre, i64 32
  store ptr %0, ptr %_M_right.i.i.i.i.i, align 8
  %_M_node_count.i.i.i.i.i = getelementptr inbounds i8, ptr %pre, i64 40
  store i64 0, ptr %_M_node_count.i.i.i.i.i, align 8
  call void @llvm.lifetime.start.p0(i64 48, ptr nonnull %var_count.i)
  %1 = getelementptr inbounds i8, ptr %var_count.i, i64 8
  store i32 0, ptr %1, align 8, !noalias !26
  %_M_parent.i.i.i.i.i.i = getelementptr inbounds i8, ptr %var_count.i, i64 16
  store ptr null, ptr %_M_parent.i.i.i.i.i.i, align 8, !noalias !26
  %_M_left.i.i.i.i.i.i = getelementptr inbounds i8, ptr %var_count.i, i64 24
  store ptr %1, ptr %_M_left.i.i.i.i.i.i, align 8, !noalias !26
  %_M_right.i.i.i.i.i.i = getelementptr inbounds i8, ptr %var_count.i, i64 32
  store ptr %1, ptr %_M_right.i.i.i.i.i.i, align 8, !noalias !26
  %_M_node_count.i.i.i.i.i.i = getelementptr inbounds i8, ptr %var_count.i, i64 40
  store i64 0, ptr %_M_node_count.i.i.i.i.i.i, align 8, !noalias !26
  invoke void @_ZN4cvc58internal6theory11quantifiers11TermDbSygus9mkGenericERKNS0_5DTypeEjRSt3mapINS0_8TypeNodeEiSt4lessIS8_ESaISt4pairIKS8_iEEERS7_IiNS0_12NodeTemplateILb1EEES9_IiESaISB_IKiSI_EEEb(ptr sret(%"class.cvc5::internal::NodeTemplate") align 8 %agg.result, ptr noundef nonnull align 8 dereferenceable(1040) %this, ptr noundef nonnull align 8 dereferenceable(448) %dt, i32 noundef %c, ptr noundef nonnull align 8 dereferenceable(48) %var_count.i, ptr noundef nonnull align 8 dereferenceable(48) %pre, i1 noundef zeroext %doBetaRed)
          to label %invoke.cont.i unwind label %lpad.i

invoke.cont.i:                                    ; preds = %entry
  %2 = load ptr, ptr %_M_parent.i.i.i.i.i.i, align 8, !noalias !26
  invoke void @_ZNSt8_Rb_treeIN4cvc58internal8TypeNodeESt4pairIKS2_iESt10_Select1stIS5_ESt4lessIS2_ESaIS5_EE8_M_eraseEPSt13_Rb_tree_nodeIS5_E(ptr noundef nonnull align 8 dereferenceable(48) %var_count.i, ptr noundef %2)
          to label %invoke.cont unwind label %terminate.lpad.i.i.i

terminate.lpad.i.i.i:                             ; preds = %invoke.cont.i
  %3 = landingpad { ptr, i32 }
          catch ptr null
  %4 = extractvalue { ptr, i32 } %3, 0
  call void @__clang_call_terminate(ptr %4) #23
  unreachable

lpad.i:                                           ; preds = %entry
  %5 = landingpad { ptr, i32 }
          cleanup
  call void @_ZNSt3mapIN4cvc58internal8TypeNodeEiSt4lessIS2_ESaISt4pairIKS2_iEEED2Ev(ptr noundef nonnull align 8 dereferenceable(48) %var_count.i) #22
  call void @_ZNSt3mapIiN4cvc58internal12NodeTemplateILb1EEESt4lessIiESaISt4pairIKiS3_EEED2Ev(ptr noundef nonnull align 8 dereferenceable(48) %pre) #22
  resume { ptr, i32 } %5

invoke.cont:                                      ; preds = %invoke.cont.i
  call void @llvm.lifetime.end.p0(i64 48, ptr nonnull %var_count.i)
  %6 = load ptr, ptr %_M_parent.i.i.i.i.i, align 8
  invoke void @_ZNSt8_Rb_treeIiSt4pairIKiN4cvc58internal12NodeTemplateILb1EEEESt10_Select1stIS6_ESt4lessIiESaIS6_EE8_M_eraseEPSt13_Rb_tree_nodeIS6_E(ptr noundef nonnull align 8 dereferenceable(48) %pre, ptr noundef %6)
          to label %_ZNSt3mapIiN4cvc58internal12NodeTemplateILb1EEESt4lessIiESaISt4pairIKiS3_EEED2Ev.exit unwind label %terminate.lpad.i.i

terminate.lpad.i.i:                               ; preds = %invoke.cont
  %7 = landingpad { ptr, i32 }
          catch ptr null
  %8 = extractvalue { ptr, i32 } %7, 0
  call void @__clang_call_terminate(ptr %8) #23
  unreachable

_ZNSt3mapIiN4cvc58internal12NodeTemplateILb1EEESt4lessIiESaISt4pairIKiS3_EEED2Ev.exit: ; preds = %invoke.cont
  ret void
}